target datalayout = "e-m:e-p270:32:32-p271:32:32-p272:64:64-i64:64-i128:128-f80:128-n8:16:32:64-S128"
target triple = "x86_64-pc-linux-gnu"

%struct.IPAddressFamily_st = type { ptr, ptr }
%struct.IPAddressChoice_st = type { i32, %union.anon }
%union.anon = type { ptr }

; Function Attrs: nounwind uwtable
define i32 @X509v3_addr_add_inherit(ptr noundef %0, i32 noundef %1, ptr noundef %2) #0 {
  %4 = alloca i32, align 4
  %5 = alloca ptr, align 8
  %6 = alloca i32, align 4
  %7 = alloca ptr, align 8
  %8 = alloca ptr, align 8
  %9 = alloca i32, align 4
  store ptr %0, ptr %5, align 8, !tbaa !35
  store i32 %1, ptr %6, align 4, !tbaa !37
  store ptr %2, ptr %7, align 8, !tbaa !38
  call void @llvm.lifetime.start.p0(i64 8, ptr %8) #9
  %10 = load ptr, ptr %5, align 8, !tbaa !35
  %11 = load i32, ptr %6, align 4, !tbaa !37
  %12 = load ptr, ptr %7, align 8, !tbaa !38
  %13 = call ptr @make_IPAddressFamily(ptr noundef %10, i32 noundef %11, ptr noundef %12)
  store ptr %13, ptr %8, align 8, !tbaa !24
  %14 = load ptr, ptr %8, align 8, !tbaa !24
  %15 = icmp eq ptr %14, null
  br i1 %15, label %35, label %16

16:                                               ; preds = %3
  %17 = load ptr, ptr %8, align 8, !tbaa !24
  %18 = getelementptr inbounds nuw %struct.IPAddressFamily_st, ptr %17, i32 0, i32 1
  %19 = load ptr, ptr %18, align 8, !tbaa !40
  %20 = icmp eq ptr %19, null
  br i1 %20, label %35, label %21

21:                                               ; preds = %16
  %22 = load ptr, ptr %8, align 8, !tbaa !24
  %23 = getelementptr inbounds nuw %struct.IPAddressFamily_st, ptr %22, i32 0, i32 1
  %24 = load ptr, ptr %23, align 8, !tbaa !40
  %25 = getelementptr inbounds nuw %struct.IPAddressChoice_st, ptr %24, i32 0, i32 0
  %26 = load i32, ptr %25, align 8, !tbaa !41
  %27 = icmp eq i32 %26, 1
  br i1 %27, label %28, label %36

28:                                               ; preds = %21
  %29 = load ptr, ptr %8, align 8, !tbaa !24
  %30 = getelementptr inbounds nuw %struct.IPAddressFamily_st, ptr %29, i32 0, i32 1
  %31 = load ptr, ptr %30, align 8, !tbaa !40
  %32 = getelementptr inbounds nuw %struct.IPAddressChoice_st, ptr %31, i32 0, i32 1
  %33 = load ptr, ptr %32, align 8, !tbaa !34
  %34 = icmp ne ptr %33, null
  br i1 %34, label %35, label %36

35:                                               ; preds = %28, %16, %3
  store i32 0, ptr %4, align 4
  store i32 1, ptr %9, align 4
  br label %71

36:                                               ; preds = %28, %21
  %37 = load ptr, ptr %8, align 8, !tbaa !24
  %38 = getelementptr inbounds nuw %struct.IPAddressFamily_st, ptr %37, i32 0, i32 1
  %39 = load ptr, ptr %38, align 8, !tbaa !40
  %40 = getelementptr inbounds nuw %struct.IPAddressChoice_st, ptr %39, i32 0, i32 0
  %41 = load i32, ptr %40, align 8, !tbaa !41
  %42 = icmp eq i32 %41, 0
  br i1 %42, label %43, label %51

43:                                               ; preds = %36
  %44 = load ptr, ptr %8, align 8, !tbaa !24
  %45 = getelementptr inbounds nuw %struct.IPAddressFamily_st, ptr %44, i32 0, i32 1
  %46 = load ptr, ptr %45, align 8, !tbaa !40
  %47 = getelementptr inbounds nuw %struct.IPAddressChoice_st, ptr %46, i32 0, i32 1
  %48 = load ptr, ptr %47, align 8, !tbaa !34
  %49 = icmp ne ptr %48, null
  br i1 %49, label %50, label %51

50:                                               ; preds = %43
  store i32 1, ptr %4, align 4
  store i32 1, ptr %9, align 4
  br label %71

51:                                               ; preds = %43, %36
  %52 = load ptr, ptr %8, align 8, !tbaa !24
  %53 = getelementptr inbounds nuw %struct.IPAddressFamily_st, ptr %52, i32 0, i32 1
  %54 = load ptr, ptr %53, align 8, !tbaa !40
  %55 = getelementptr inbounds nuw %struct.IPAddressChoice_st, ptr %54, i32 0, i32 1
  %56 = load ptr, ptr %55, align 8, !tbaa !34
  %57 = icmp eq ptr %56, null
  br i1 %57, label %58, label %66

58:                                               ; preds = %51
  %59 = call ptr @ASN1_NULL_new()
  %60 = load ptr, ptr %8, align 8, !tbaa !24
  %61 = getelementptr inbounds nuw %struct.IPAddressFamily_st, ptr %60, i32 0, i32 1
  %62 = load ptr, ptr %61, align 8, !tbaa !40
  %63 = getelementptr inbounds nuw %struct.IPAddressChoice_st, ptr %62, i32 0, i32 1
  store ptr %59, ptr %63, align 8, !tbaa !34
  %64 = icmp eq ptr %59, null
  br i1 %64, label %65, label %66

65:                                               ; preds = %58
  store i32 0, ptr %4, align 4
  store i32 1, ptr %9, align 4
  br label %71

66:                                               ; preds = %58, %51
  %67 = load ptr, ptr %8, align 8, !tbaa !24
  %68 = getelementptr inbounds nuw %struct.IPAddressFamily_st, ptr %67, i32 0, i32 1
  %69 = load ptr, ptr %68, align 8, !tbaa !40
  %70 = getelementptr inbounds nuw %struct.IPAddressChoice_st, ptr %69, i32 0, i32 0
  store i32 0, ptr %70, align 8, !tbaa !41
  store i32 1, ptr %4, align 4
  store i32 1, ptr %9, align 4
  br label %71

71:                                               ; preds = %66, %65, %50, %35
  call void @llvm.lifetime.end.p0(i64 8, ptr %8) #9
  %72 = load i32, ptr %4, align 4
  ret i32 %72
}