; Function Attrs: nounwind uwtable
define range(i32 0, 2) i32 @X509v3_addr_add_inherit(ptr noundef %0, i32 noundef %1, ptr noundef captures(address_is_null) %2) local_unnamed_addr #1 {
  %4 = tail call fastcc ptr @make_IPAddressFamily(ptr noundef %0, i32 noundef %1, ptr noundef %2)
  %5 = icmp eq ptr %4, null
  br i1 %5, label %21, label %6

6:                                                ; preds = %3
  %7 = getelementptr inbounds nuw i8, ptr %4, i64 8
  %8 = load ptr, ptr %7, align 8, !tbaa !17
  %9 = icmp eq ptr %8, null
  br i1 %9, label %21, label %10

10:                                               ; preds = %6
  %11 = load i32, ptr %8, align 8, !tbaa !18
  %.phi.trans.insert = getelementptr inbounds nuw i8, ptr %8, i64 8
  %.pre = load ptr, ptr %.phi.trans.insert, align 8, !tbaa !16
  %12 = icmp eq ptr %.pre, null
  switch i32 %11, label %.thread [
    i32 1, label %13
    i32 0, label %14
  ]

13:                                               ; preds = %10
  br i1 %12, label %.thread.thread, label %21

14:                                               ; preds = %10
  br i1 %12, label %.thread.thread, label %21

.thread:                                          ; preds = %10
  br i1 %12, label %.thread.thread, label %19

.thread.thread:                                   ; preds = %14, %13, %.thread
  %15 = tail call ptr @ASN1_NULL_new() #15
  %16 = load ptr, ptr %7, align 8, !tbaa !17
  %17 = getelementptr inbounds nuw i8, ptr %16, i64 8
  store ptr %15, ptr %17, align 8, !tbaa !16
  %18 = icmp eq ptr %15, null
  br i1 %18, label %21, label %._crit_edge

._crit_edge:                                      ; preds = %.thread.thread
  %.pre15 = load ptr, ptr %7, align 8, !tbaa !17
  br label %19

19:                                               ; preds = %._crit_edge, %.thread
  %20 = phi ptr [ %.pre15, %._crit_edge ], [ %8, %.thread ]
  store i32 0, ptr %20, align 8, !tbaa !18
  br label %21

21:                                               ; preds = %.thread.thread, %14, %3, %6, %13, %19
  %.0 = phi i32 [ 1, %19 ], [ 0, %13 ], [ 0, %6 ], [ 0, %3 ], [ 1, %14 ], [ 0, %.thread.thread ]
  ret i32 %.0
}